; ModuleID = '51/752.c'
source_filename = "51/752.c"
target datalayout = "e-m:e-p270:32:32-p271:32:32-p272:64:64-i64:64-f80:128-n8:16:32:64-S128"
target triple = "x86_64-pc-linux-gnu"

@.str = private unnamed_addr constant [5 x i8] c"%d%s\00", align 1
@.str.1 = private unnamed_addr constant [3 x i8] c"NO\00", align 1
@.str.2 = private unnamed_addr constant [4 x i8] c"%d\0A\00", align 1
@.str.3 = private unnamed_addr constant [3 x i8] c"%c\00", align 1
@.str.4 = private unnamed_addr constant [2 x i8] c"\0A\00", align 1

; Function Attrs: noinline nounwind uwtable
define dso_local i32 @main() #0 {
  %1 = alloca i32, align 4
  %2 = alloca i32, align 4
  %3 = alloca i32, align 4
  %4 = alloca [1000 x i32], align 16
  %5 = alloca i32, align 4
  %6 = alloca i32, align 4
  %7 = alloca [1000 x [1000 x i8]], align 16
  %8 = alloca [1000 x i8], align 16
  %9 = alloca i32, align 4
  %10 = alloca i32, align 4
  %11 = alloca i32, align 4
  %12 = alloca i32, align 4
  %13 = alloca i32, align 4
  %14 = alloca i32, align 4
  %15 = alloca i32, align 4
  store i32 0, i32* %1, align 4
  store i32 1, i32* %6, align 4
  %16 = getelementptr inbounds [1000 x i8], [1000 x i8]* %8, i64 0, i64 0
  %17 = call i32 (i8*, ...) @__isoc99_scanf(i8* getelementptr inbounds ([5 x i8], [5 x i8]* @.str, i64 0, i64 0), i32* %2, i8* %16)
  %18 = getelementptr inbounds [1000 x i8], [1000 x i8]* %8, i64 0, i64 0
  %19 = call i64 @strlen(i8* %18) #4
  %20 = trunc i64 %19 to i32
  store i32 %20, i32* %3, align 4
  store i32 0, i32* %9, align 4
  br label %21

21:                                               ; preds = %49, %0
  %22 = load i32, i32* %9, align 4
  %23 = load i32, i32* %3, align 4
  %24 = load i32, i32* %2, align 4
  %25 = sub nsw i32 %23, %24
  %26 = icmp sle i32 %22, %25
  br i1 %26, label %27, label %52

27:                                               ; preds = %21
  store i32 0, i32* %10, align 4
  br label %28

28:                                               ; preds = %45, %27
  %29 = load i32, i32* %10, align 4
  %30 = load i32, i32* %2, align 4
  %31 = icmp slt i32 %29, %30
  br i1 %31, label %32, label %48

32:                                               ; preds = %28
  %33 = load i32, i32* %9, align 4
  %34 = load i32, i32* %10, align 4
  %35 = add nsw i32 %33, %34
  %36 = sext i32 %35 to i64
  %37 = getelementptr inbounds [1000 x i8], [1000 x i8]* %8, i64 0, i64 %36
  %38 = load i8, i8* %37, align 1
  %39 = load i32, i32* %9, align 4
  %40 = sext i32 %39 to i64
  %41 = getelementptr inbounds [1000 x [1000 x i8]], [1000 x [1000 x i8]]* %7, i64 0, i64 %40
  %42 = load i32, i32* %10, align 4
  %43 = sext i32 %42 to i64
  %44 = getelementptr inbounds [1000 x i8], [1000 x i8]* %41, i64 0, i64 %43
  store i8 %38, i8* %44, align 1
  br label %45

45:                                               ; preds = %32
  %46 = load i32, i32* %10, align 4
  %47 = add nsw i32 %46, 1
  store i32 %47, i32* %10, align 4
  br label %28

48:                                               ; preds = %28
  br label %49

49:                                               ; preds = %48
  %50 = load i32, i32* %9, align 4
  %51 = add nsw i32 %50, 1
  store i32 %51, i32* %9, align 4
  br label %21

52:                                               ; preds = %21
  %53 = getelementptr inbounds [1000 x i32], [1000 x i32]* %4, i64 0, i64 0
  %54 = bitcast i32* %53 to i8*
  call void @llvm.memset.p0i8.i64(i8* align 16 %54, i8 0, i64 4000, i1 false)
  store i32 0, i32* %11, align 4
  br label %55

55:                                               ; preds = %92, %52
  %56 = load i32, i32* %11, align 4
  %57 = load i32, i32* %3, align 4
  %58 = load i32, i32* %2, align 4
  %59 = sub nsw i32 %57, %58
  %60 = icmp slt i32 %56, %59
  br i1 %60, label %61, label %95

61:                                               ; preds = %55
  %62 = load i32, i32* %11, align 4
  store i32 %62, i32* %12, align 4
  br label %63

63:                                               ; preds = %88, %61
  %64 = load i32, i32* %12, align 4
  %65 = load i32, i32* %3, align 4
  %66 = load i32, i32* %2, align 4
  %67 = sub nsw i32 %65, %66
  %68 = icmp sle i32 %64, %67
  br i1 %68, label %69, label %91

69:                                               ; preds = %63
  %70 = load i32, i32* %11, align 4
  %71 = sext i32 %70 to i64
  %72 = getelementptr inbounds [1000 x [1000 x i8]], [1000 x [1000 x i8]]* %7, i64 0, i64 %71
  %73 = getelementptr inbounds [1000 x i8], [1000 x i8]* %72, i64 0, i64 0
  %74 = load i32, i32* %12, align 4
  %75 = sext i32 %74 to i64
  %76 = getelementptr inbounds [1000 x [1000 x i8]], [1000 x [1000 x i8]]* %7, i64 0, i64 %75
  %77 = getelementptr inbounds [1000 x i8], [1000 x i8]* %76, i64 0, i64 0
  %78 = call i32 @strcmp(i8* %73, i8* %77) #4
  store i32 %78, i32* %5, align 4
  %79 = load i32, i32* %5, align 4
  %80 = icmp eq i32 %79, 0
  br i1 %80, label %81, label %87

81:                                               ; preds = %69
  %82 = load i32, i32* %11, align 4
  %83 = sext i32 %82 to i64
  %84 = getelementptr inbounds [1000 x i32], [1000 x i32]* %4, i64 0, i64 %83
  %85 = load i32, i32* %84, align 4
  %86 = add nsw i32 %85, 1
  store i32 %86, i32* %84, align 4
  br label %87

87:                                               ; preds = %81, %69
  br label %88

88:                                               ; preds = %87
  %89 = load i32, i32* %12, align 4
  %90 = add nsw i32 %89, 1
  store i32 %90, i32* %12, align 4
  br label %63

91:                                               ; preds = %63
  br label %92

92:                                               ; preds = %91
  %93 = load i32, i32* %11, align 4
  %94 = add nsw i32 %93, 1
  store i32 %94, i32* %11, align 4
  br label %55

95:                                               ; preds = %55
  store i32 0, i32* %13, align 4
  br label %96

96:                                               ; preds = %115, %95
  %97 = load i32, i32* %13, align 4
  %98 = load i32, i32* %3, align 4
  %99 = load i32, i32* %2, align 4
  %100 = sub nsw i32 %98, %99
  %101 = icmp slt i32 %97, %100
  br i1 %101, label %102, label %118

102:                                              ; preds = %96
  %103 = load i32, i32* %13, align 4
  %104 = sext i32 %103 to i64
  %105 = getelementptr inbounds [1000 x i32], [1000 x i32]* %4, i64 0, i64 %104
  %106 = load i32, i32* %105, align 4
  %107 = load i32, i32* %6, align 4
  %108 = icmp sgt i32 %106, %107
  br i1 %108, label %109, label %114

109:                                              ; preds = %102
  %110 = load i32, i32* %13, align 4
  %111 = sext i32 %110 to i64
  %112 = getelementptr inbounds [1000 x i32], [1000 x i32]* %4, i64 0, i64 %111
  %113 = load i32, i32* %112, align 4
  store i32 %113, i32* %6, align 4
  br label %114

114:                                              ; preds = %109, %102
  br label %115

115:                                              ; preds = %114
  %116 = load i32, i32* %13, align 4
  %117 = add nsw i32 %116, 1
  store i32 %117, i32* %13, align 4
  br label %96

118:                                              ; preds = %96
  %119 = load i32, i32* %6, align 4
  %120 = icmp eq i32 %119, 1
  br i1 %120, label %121, label %123

121:                                              ; preds = %118
  %122 = call i32 (i8*, ...) @printf(i8* getelementptr inbounds ([3 x i8], [3 x i8]* @.str.1, i64 0, i64 0))
  br label %164

123:                                              ; preds = %118
  %124 = load i32, i32* %6, align 4
  %125 = call i32 (i8*, ...) @printf(i8* getelementptr inbounds ([4 x i8], [4 x i8]* @.str.2, i64 0, i64 0), i32 %124)
  store i32 0, i32* %14, align 4
  br label %126

126:                                              ; preds = %160, %123
  %127 = load i32, i32* %14, align 4
  %128 = load i32, i32* %3, align 4
  %129 = load i32, i32* %2, align 4
  %130 = sub nsw i32 %128, %129
  %131 = icmp slt i32 %127, %130
  br i1 %131, label %132, label %163

132:                                              ; preds = %126
  %133 = load i32, i32* %14, align 4
  %134 = sext i32 %133 to i64
  %135 = getelementptr inbounds [1000 x i32], [1000 x i32]* %4, i64 0, i64 %134
  %136 = load i32, i32* %135, align 4
  %137 = load i32, i32* %6, align 4
  %138 = icmp eq i32 %136, %137
  br i1 %138, label %139, label %159

139:                                              ; preds = %132
  store i32 0, i32* %15, align 4
  br label %140

140:                                              ; preds = %154, %139
  %141 = load i32, i32* %15, align 4
  %142 = load i32, i32* %2, align 4
  %143 = icmp slt i32 %141, %142
  br i1 %143, label %144, label %157

144:                                              ; preds = %140
  %145 = load i32, i32* %14, align 4
  %146 = sext i32 %145 to i64
  %147 = getelementptr inbounds [1000 x [1000 x i8]], [1000 x [1000 x i8]]* %7, i64 0, i64 %146
  %148 = load i32, i32* %15, align 4
  %149 = sext i32 %148 to i64
  %150 = getelementptr inbounds [1000 x i8], [1000 x i8]* %147, i64 0, i64 %149
  %151 = load i8, i8* %150, align 1
  %152 = sext i8 %151 to i32
  %153 = call i32 (i8*, ...) @printf(i8* getelementptr inbounds ([3 x i8], [3 x i8]* @.str.3, i64 0, i64 0), i32 %152)
  br label %154

154:                                              ; preds = %144
  %155 = load i32, i32* %15, align 4
  %156 = add nsw i32 %155, 1
  store i32 %156, i32* %15, align 4
  br label %140

157:                                              ; preds = %140
  %158 = call i32 (i8*, ...) @printf(i8* getelementptr inbounds ([2 x i8], [2 x i8]* @.str.4, i64 0, i64 0))
  br label %159

159:                                              ; preds = %157, %132
  br label %160

160:                                              ; preds = %159
  %161 = load i32, i32* %14, align 4
  %162 = add nsw i32 %161, 1
  store i32 %162, i32* %14, align 4
  br label %126

163:                                              ; preds = %126
  br label %164

164:                                              ; preds = %163, %121
  %165 = load i32, i32* %1, align 4
  ret i32 %165
}

declare dso_local i32 @__isoc99_scanf(i8*, ...) #1

; Function Attrs: nounwind readonly
declare dso_local i64 @strlen(i8*) #2

; Function Attrs: argmemonly nounwind willreturn
declare void @llvm.memset.p0i8.i64(i8* nocapture writeonly, i8, i64, i1 immarg) #3

; Function Attrs: nounwind readonly
declare dso_local i32 @strcmp(i8*, i8*) #2

declare dso_local i32 @printf(i8*, ...) #1


!llvm.module.flags = !{!0}
!llvm.ident = !{!1}

!0 = !{i32 1, !"wchar_size", i32 4}
!1 = !{!"clang version 10.0.0-4ubuntu1 "}
